target datalayout = "e-m:e-p270:32:32-p271:32:32-p272:64:64-i64:64-i128:128-f80:128-n8:16:32:64-S128"
target triple = "x86_64-pc-linux-gnu"

%class.KlassInfoEntry = type { ptr, ptr, i64, i64, i64, i8, ptr }
%class.KlassInfoBucket = type { ptr }
%class.KlassInfoTable = type { i64, i64, ptr }
%class.KlassInfoTableMergeClosure = type <{ %class.KlassInfoClosure, ptr, i8, [7 x i8] }>
%class.KlassInfoClosure = type { ptr }

@_ZTV26KlassInfoTableMergeClosure = linkonce_odr hidden unnamed_addr constant { [3 x ptr] } { [3 x ptr] [ptr null, ptr null, ptr @_ZN26KlassInfoTableMergeClosure8do_cinfoEP14KlassInfoEntry] }, comdat, align 8
@_ZTV16KlassInfoClosure = linkonce_odr hidden unnamed_addr constant { [3 x ptr] } { [3 x ptr] [ptr null, ptr null, ptr @__cxa_pure_virtual] }, comdat, align 8

; Function Attrs: mustprogress nounwind uwtable
define linkonce_odr hidden noundef ptr @_ZNK14KlassInfoEntry4nextEv(ptr noundef nonnull align 8 dereferenceable(56) %0) #1 comdat align 2 {
  %2 = alloca ptr, align 8
  store ptr %0, ptr %2, align 8
  %3 = load ptr, ptr %2, align 8
  %4 = getelementptr inbounds %class.KlassInfoEntry, ptr %3, i32 0, i32 0
  %5 = load ptr, ptr %4, align 8
  ret ptr %5
}

; Function Attrs: mustprogress nounwind uwtable
define hidden void @_ZN15KlassInfoBucket7iterateEP16KlassInfoClosure(ptr noundef nonnull align 8 dereferenceable(8) %0, ptr noundef %1) #1 align 2 {
  %3 = alloca ptr, align 8
  %4 = alloca ptr, align 8
  %5 = alloca ptr, align 8
  store ptr %0, ptr %3, align 8
  store ptr %1, ptr %4, align 8
  %6 = load ptr, ptr %3, align 8
  %7 = getelementptr inbounds %class.KlassInfoBucket, ptr %6, i32 0, i32 0
  %8 = load ptr, ptr %7, align 8
  store ptr %8, ptr %5, align 8
  br label %9

9:                                                ; preds = %12, %2
  %10 = load ptr, ptr %5, align 8
  %11 = icmp ne ptr %10, null
  br i1 %11, label %12, label %20

12:                                               ; preds = %9
  %13 = load ptr, ptr %4, align 8
  %14 = load ptr, ptr %5, align 8
  %15 = load ptr, ptr %13, align 8
  %16 = getelementptr inbounds ptr, ptr %15, i64 0
  %17 = load ptr, ptr %16, align 8
  call void %17(ptr noundef nonnull align 8 dereferenceable(8) %13, ptr noundef %14)
  %18 = load ptr, ptr %5, align 8
  %19 = call noundef ptr @_ZNK14KlassInfoEntry4nextEv(ptr noundef nonnull align 8 dereferenceable(56) %18)
  store ptr %19, ptr %5, align 8
  br label %9, !llvm.loop !8

20:                                               ; preds = %9
  ret void
}

; Function Attrs: mustprogress nounwind uwtable
define linkonce_odr hidden void @_ZN16KlassInfoClosureC2Ev(ptr noundef nonnull align 8 dereferenceable(8) %0) unnamed_addr #1 comdat align 2 {
  %2 = alloca ptr, align 8
  store ptr %0, ptr %2, align 8
  %3 = load ptr, ptr %2, align 8
  store ptr getelementptr inbounds inrange(-16, 8) ({ [3 x ptr] }, ptr @_ZTV16KlassInfoClosure, i32 0, i32 0, i32 2), ptr %3, align 8
  ret void
}

; Function Attrs: mustprogress nounwind uwtable
define linkonce_odr hidden noundef zeroext i1 @_ZN26KlassInfoTableMergeClosure7successEv(ptr noundef nonnull align 8 dereferenceable(17) %0) #1 comdat align 2 {
  %2 = alloca ptr, align 8
  store ptr %0, ptr %2, align 8
  %3 = load ptr, ptr %2, align 8
  %4 = getelementptr inbounds %class.KlassInfoTableMergeClosure, ptr %3, i32 0, i32 2
  %5 = load i8, ptr %4, align 8
  %6 = trunc i8 %5 to i1
  ret i1 %6
}

; Function Attrs: mustprogress nounwind uwtable
define hidden void @_ZN14KlassInfoTable7iterateEP16KlassInfoClosure(ptr noundef nonnull align 8 dereferenceable(24) %0, ptr noundef %1) #1 align 2 {
  %3 = alloca ptr, align 8
  %4 = alloca ptr, align 8
  %5 = alloca i32, align 4
  store ptr %0, ptr %3, align 8
  store ptr %1, ptr %4, align 8
  %6 = load ptr, ptr %3, align 8
  store i32 0, ptr %5, align 4
  br label %7

7:                                                ; preds = %17, %2
  %8 = load i32, ptr %5, align 4
  %9 = icmp slt i32 %8, 20011
  br i1 %9, label %10, label %20

10:                                               ; preds = %7
  %11 = getelementptr inbounds %class.KlassInfoTable, ptr %6, i32 0, i32 2
  %12 = load ptr, ptr %11, align 8
  %13 = load i32, ptr %5, align 4
  %14 = sext i32 %13 to i64
  %15 = getelementptr inbounds %class.KlassInfoBucket, ptr %12, i64 %14
  %16 = load ptr, ptr %4, align 8
  call void @_ZN15KlassInfoBucket7iterateEP16KlassInfoClosure(ptr noundef nonnull align 8 dereferenceable(8) %15, ptr noundef %16)
  br label %17

17:                                               ; preds = %10
  %18 = load i32, ptr %5, align 4
  %19 = add nsw i32 %18, 1
  store i32 %19, ptr %5, align 4
  br label %7, !llvm.loop !12

20:                                               ; preds = %7
  ret void
}

; Function Attrs: mustprogress nounwind uwtable
define linkonce_odr hidden void @_ZN26KlassInfoTableMergeClosureC2EP14KlassInfoTable(ptr noundef nonnull align 8 dereferenceable(17) %0, ptr noundef %1) unnamed_addr #1 comdat align 2 {
  %3 = alloca ptr, align 8
  %4 = alloca ptr, align 8
  store ptr %0, ptr %3, align 8
  store ptr %1, ptr %4, align 8
  %5 = load ptr, ptr %3, align 8
  call void @_ZN16KlassInfoClosureC2Ev(ptr noundef nonnull align 8 dereferenceable(8) %5) #9
  store ptr getelementptr inbounds inrange(-16, 8) ({ [3 x ptr] }, ptr @_ZTV26KlassInfoTableMergeClosure, i32 0, i32 0, i32 2), ptr %5, align 8
  %6 = getelementptr inbounds %class.KlassInfoTableMergeClosure, ptr %5, i32 0, i32 1
  %7 = load ptr, ptr %4, align 8
  store ptr %7, ptr %6, align 8
  %8 = getelementptr inbounds %class.KlassInfoTableMergeClosure, ptr %5, i32 0, i32 2
  store i8 1, ptr %8, align 8
  ret void
}

; Function Attrs: mustprogress nounwind uwtable
define hidden noundef zeroext i1 @_ZN14KlassInfoTable5mergeEPS_(ptr noundef nonnull align 8 dereferenceable(24) %0, ptr noundef %1) #1 align 2 {
  %3 = alloca ptr, align 8
  %4 = alloca ptr, align 8
  %5 = alloca %class.KlassInfoTableMergeClosure, align 8
  store ptr %0, ptr %3, align 8
  store ptr %1, ptr %4, align 8
  %6 = load ptr, ptr %3, align 8
  call void @_ZN26KlassInfoTableMergeClosureC2EP14KlassInfoTable(ptr noundef nonnull align 8 dereferenceable(17) %5, ptr noundef %6)
  %7 = load ptr, ptr %4, align 8
  call void @_ZN14KlassInfoTable7iterateEP16KlassInfoClosure(ptr noundef nonnull align 8 dereferenceable(24) %7, ptr noundef %5)
  %8 = call noundef zeroext i1 @_ZN26KlassInfoTableMergeClosure7successEv(ptr noundef nonnull align 8 dereferenceable(17) %5)
  ret i1 %8
}