; Function Attrs: mustprogress nounwind uwtable
define hidden noundef zeroext i1 @_ZN14KlassInfoTable5mergeEPS_(ptr noundef nonnull align 8 dereferenceable(24) %0, ptr nocapture noundef readonly %1) local_unnamed_addr #0 align 2 {
  %3 = alloca %class.KlassInfoTableMergeClosure, align 8
  store ptr getelementptr inbounds inrange(-16, 8) (i8, ptr @_ZTV26KlassInfoTableMergeClosure, i64 16), ptr %3, align 8
  %4 = getelementptr inbounds i8, ptr %3, i64 8
  store ptr %0, ptr %4, align 8
  %5 = getelementptr inbounds i8, ptr %3, i64 16
  store i8 1, ptr %5, align 8
  %6 = getelementptr inbounds i8, ptr %1, i64 16
  br label %7

7:                                                ; preds = %_ZN15KlassInfoBucket7iterateEP16KlassInfoClosure.exit.i, %2
  %indvars.iv.i = phi i64 [ 0, %2 ], [ %indvars.iv.next.i, %_ZN15KlassInfoBucket7iterateEP16KlassInfoClosure.exit.i ]
  %8 = load ptr, ptr %6, align 8
  %9 = getelementptr inbounds %class.KlassInfoBucket, ptr %8, i64 %indvars.iv.i
  %.05.i.i = load ptr, ptr %9, align 8
  %.not6.i.i = icmp eq ptr %.05.i.i, null
  br i1 %.not6.i.i, label %_ZN15KlassInfoBucket7iterateEP16KlassInfoClosure.exit.i, label %.lr.ph.i.i

.lr.ph.i.i:                                       ; preds = %7, %.lr.ph.i.i
  %.07.i.i = phi ptr [ %.0.i.i, %.lr.ph.i.i ], [ %.05.i.i, %7 ]
  %10 = load ptr, ptr %3, align 8
  %11 = load ptr, ptr %10, align 8
  call void %11(ptr noundef nonnull align 8 dereferenceable(8) %3, ptr noundef nonnull %.07.i.i) #15
  %.0.i.i = load ptr, ptr %.07.i.i, align 8
  %.not.i.i = icmp eq ptr %.0.i.i, null
  br i1 %.not.i.i, label %_ZN15KlassInfoBucket7iterateEP16KlassInfoClosure.exit.i, label %.lr.ph.i.i, !llvm.loop !8

_ZN15KlassInfoBucket7iterateEP16KlassInfoClosure.exit.i: ; preds = %.lr.ph.i.i, %7
  %indvars.iv.next.i = add nuw nsw i64 %indvars.iv.i, 1
  %exitcond.not.i = icmp eq i64 %indvars.iv.next.i, 20011
  br i1 %exitcond.not.i, label %_ZN14KlassInfoTable7iterateEP16KlassInfoClosure.exit, label %7, !llvm.loop !12

_ZN14KlassInfoTable7iterateEP16KlassInfoClosure.exit: ; preds = %_ZN15KlassInfoBucket7iterateEP16KlassInfoClosure.exit.i
  %12 = load i8, ptr %5, align 8
  %13 = trunc i8 %12 to i1
  ret i1 %13
}